target datalayout = "e-m:e-p270:32:32-p271:32:32-p272:64:64-i64:64-i128:128-f80:128-n8:16:32:64-S128"
target triple = "x86_64-pc-linux-gnu"

%struct.RBasic = type { i64, i64 }
%struct.RString = type { %struct.RBasic, i64, %union.anon.1 }
%union.anon.1 = type { %struct.anon.2 }
%struct.anon.2 = type { ptr, %union.anon.3 }
%union.anon.3 = type { i64 }
%struct.anon.4 = type { [1 x i8] }

; Function Attrs: inlinehint nounwind sspstrong willreturn memory(read) uwtable
define internal i64 @RB_FL_TEST_RAW(i64 noundef %0, i64 noundef %1) #5 {
  %3 = alloca i64, align 8
  %4 = alloca i64, align 8
  store i64 %0, ptr %3, align 8, !tbaa !6
  store i64 %1, ptr %4, align 8, !tbaa !6
  %5 = load i64, ptr %3, align 8, !tbaa !6
  %6 = inttoptr i64 %5 to ptr
  %7 = getelementptr inbounds nuw %struct.RBasic, ptr %6, i32 0, i32 0
  %8 = load i64, ptr %7, align 8, !tbaa !47
  %9 = load i64, ptr %4, align 8, !tbaa !6
  %10 = and i64 %8, %9
  ret i64 %10
}

; Function Attrs: inlinehint nounwind sspstrong willreturn memory(read) uwtable
define internal i64 @RSTRING_LEN(i64 noundef %0) #5 {
  %2 = alloca i64, align 8
  store i64 %0, ptr %2, align 8, !tbaa !6
  %3 = load i64, ptr %2, align 8, !tbaa !6
  %4 = inttoptr i64 %3 to ptr
  %5 = getelementptr inbounds nuw %struct.RString, ptr %4, i32 0, i32 1
  %6 = load i64, ptr %5, align 8, !tbaa !37
  ret i64 %6
}

; Function Attrs: inlinehint nounwind sspstrong willreturn memory(read) uwtable
define internal zeroext i1 @RB_FL_ANY_RAW(i64 noundef %0, i64 noundef %1) #5 {
  %3 = alloca i64, align 8
  %4 = alloca i64, align 8
  store i64 %0, ptr %3, align 8, !tbaa !6
  store i64 %1, ptr %4, align 8, !tbaa !6
  %5 = load i64, ptr %3, align 8, !tbaa !6
  %6 = load i64, ptr %4, align 8, !tbaa !6
  %7 = call i64 @RB_FL_TEST_RAW(i64 noundef %5, i64 noundef %6) #24
  %8 = icmp ne i64 %7, 0
  ret i1 %8
}

; Function Attrs: inlinehint nounwind sspstrong willreturn memory(read, argmem: readwrite) uwtable
define internal void @rbimpl_rstring_getmem(ptr dead_on_unwind noalias writable sret(%struct.RString) align 8 %0, i64 noundef %1) #19 {
  %3 = alloca i64, align 8
  store i64 %1, ptr %3, align 8, !tbaa !6
  %4 = load i64, ptr %3, align 8, !tbaa !6
  %5 = call zeroext i1 @RB_FL_ANY_RAW(i64 noundef %4, i64 noundef 8192) #24
  br i1 %5, label %6, label %9

6:                                                ; preds = %2
  %7 = load i64, ptr %3, align 8, !tbaa !6
  %8 = inttoptr i64 %7 to ptr
  call void @llvm.memcpy.p0.p0.i64(ptr align 8 %0, ptr align 8 %8, i64 40, i1 false), !tbaa.struct !48
  br label %20

9:                                                ; preds = %2
  %10 = load i64, ptr %3, align 8, !tbaa !6
  %11 = call i64 @RSTRING_LEN(i64 noundef %10) #24
  %12 = getelementptr inbounds nuw %struct.RString, ptr %0, i32 0, i32 1
  store i64 %11, ptr %12, align 8, !tbaa !37
  %13 = load i64, ptr %3, align 8, !tbaa !6
  %14 = inttoptr i64 %13 to ptr
  %15 = getelementptr inbounds nuw %struct.RString, ptr %14, i32 0, i32 2
  %16 = getelementptr inbounds nuw %struct.anon.4, ptr %15, i32 0, i32 0
  %17 = getelementptr inbounds [1 x i8], ptr %16, i64 0, i64 0
  %18 = getelementptr inbounds nuw %struct.RString, ptr %0, i32 0, i32 2
  %19 = getelementptr inbounds nuw %struct.anon.2, ptr %18, i32 0, i32 0
  store ptr %17, ptr %19, align 8, !tbaa !21
  br label %20

20:                                               ; preds = %9, %6
  ret void
}

; Function Attrs: alwaysinline nounwind
define internal ptr @memcpy.inline(ptr noalias nonnull %0, ptr noalias nonnull %1, i64 %2) #8 {
  %4 = alloca ptr, align 8
  %5 = alloca ptr, align 8
  %6 = alloca i64, align 8
  store ptr %0, ptr %4, align 8, !tbaa !22
  store ptr %1, ptr %5, align 8, !tbaa !22
  store i64 %2, ptr %6, align 8, !tbaa !6
  %7 = load ptr, ptr %4, align 8, !tbaa !22
  %8 = load ptr, ptr %5, align 8, !tbaa !22
  %9 = load i64, ptr %6, align 8, !tbaa !6
  %10 = load ptr, ptr %4, align 8, !tbaa !22
  %11 = call i64 @llvm.objectsize.i64.p0(ptr %10, i1 false, i1 true, i1 false)
  %12 = call ptr @__memcpy_chk(ptr noundef %7, ptr noundef %8, i64 noundef %9, i64 noundef %11) #22
  ret ptr %12
}

; Function Attrs: inlinehint nounwind sspstrong uwtable
define internal ptr @RSTRING_PTR(i64 noundef %0) #2 {
  %2 = alloca i64, align 8
  %3 = alloca ptr, align 8
  %4 = alloca %struct.RString, align 8
  store i64 %0, ptr %2, align 8, !tbaa !6
  call void @llvm.lifetime.start.p0(i64 8, ptr %3) #22
  %5 = load i64, ptr %2, align 8, !tbaa !6
  call void @rbimpl_rstring_getmem(ptr dead_on_unwind writable sret(%struct.RString) align 8 %4, i64 noundef %5) #26
  %6 = getelementptr inbounds nuw %struct.RString, ptr %4, i32 0, i32 2
  %7 = getelementptr inbounds nuw %struct.anon.2, ptr %6, i32 0, i32 0
  %8 = load ptr, ptr %7, align 8, !tbaa !21
  store ptr %8, ptr %3, align 8, !tbaa !19
  %9 = load ptr, ptr %3, align 8, !tbaa !19
  call void @llvm.lifetime.end.p0(i64 8, ptr %3) #22
  ret ptr %9
}

; Function Attrs: nounwind sspstrong uwtable
define i64 @ossl_str_new(ptr noundef %0, i64 noundef %1, ptr noundef %2) #0 {
  %4 = alloca i64, align 8
  %5 = alloca ptr, align 8
  %6 = alloca i64, align 8
  %7 = alloca ptr, align 8
  %8 = alloca i64, align 8
  %9 = alloca i32, align 4
  %10 = alloca i32, align 4
  store ptr %0, ptr %5, align 8, !tbaa !19
  store i64 %1, ptr %6, align 8, !tbaa !6
  store ptr %2, ptr %7, align 8, !tbaa !23
  call void @llvm.lifetime.start.p0(i64 8, ptr %8) #22
  call void @llvm.lifetime.start.p0(i64 4, ptr %9) #22
  %11 = load i64, ptr %6, align 8, !tbaa !6
  %12 = call i64 @rb_protect(ptr noundef @ossl_str_new_i, i64 noundef %11, ptr noundef %9)
  store i64 %12, ptr %8, align 8, !tbaa !6
  %13 = load ptr, ptr %7, align 8, !tbaa !23
  %14 = icmp ne ptr %13, null
  br i1 %14, label %15, label %18

15:                                               ; preds = %3
  %16 = load i32, ptr %9, align 4, !tbaa !13
  %17 = load ptr, ptr %7, align 8, !tbaa !23
  store i32 %16, ptr %17, align 4, !tbaa !13
  br label %18

18:                                               ; preds = %15, %3
  %19 = load i32, ptr %9, align 4, !tbaa !13
  %20 = icmp ne i32 %19, 0
  br i1 %20, label %21, label %26

21:                                               ; preds = %18
  %22 = load ptr, ptr %7, align 8, !tbaa !23
  %23 = icmp ne ptr %22, null
  br i1 %23, label %25, label %24

24:                                               ; preds = %21
  call void @rb_set_errinfo(i64 noundef 4)
  br label %25

25:                                               ; preds = %24, %21
  store i64 4, ptr %4, align 8
  store i32 1, ptr %10, align 4
  br label %37

26:                                               ; preds = %18
  %27 = load ptr, ptr %5, align 8, !tbaa !19
  %28 = icmp ne ptr %27, null
  br i1 %28, label %29, label %35

29:                                               ; preds = %26
  %30 = load i64, ptr %8, align 8, !tbaa !6
  %31 = call ptr @RSTRING_PTR(i64 noundef %30)
  %32 = load ptr, ptr %5, align 8, !tbaa !19
  %33 = load i64, ptr %6, align 8, !tbaa !6
  %34 = call ptr @memcpy.inline(ptr noundef %31, ptr noundef %32, i64 noundef %33) #22
  br label %35

35:                                               ; preds = %29, %26
  %36 = load i64, ptr %8, align 8, !tbaa !6
  store i64 %36, ptr %4, align 8
  store i32 1, ptr %10, align 4
  br label %37

37:                                               ; preds = %35, %25
  call void @llvm.lifetime.end.p0(i64 4, ptr %9) #22
  call void @llvm.lifetime.end.p0(i64 8, ptr %8) #22
  %38 = load i64, ptr %4, align 8
  ret i64 %38
}