; Function Attrs: nounwind sspstrong uwtable
define i64 @ossl_str_new(ptr noundef readonly captures(address_is_null) %0, i64 noundef %1, ptr noundef writeonly captures(address_is_null) %2) local_unnamed_addr #0 {
  %4 = alloca i32, align 4
  call void @llvm.lifetime.start.p0(i64 4, ptr nonnull %4) #15
  %5 = call i64 @rb_protect(ptr noundef nonnull @ossl_str_new_i, i64 noundef %1, ptr noundef nonnull %4) #15
  %.not = icmp eq ptr %2, null
  %.pr = load i32, ptr %4, align 4, !tbaa !17
  br i1 %.not, label %6, label %.thread

6:                                                ; preds = %3
  %.not11 = icmp eq i32 %.pr, 0
  br i1 %.not11, label %8, label %7

.thread:                                          ; preds = %3
  store i32 %.pr, ptr %2, align 4, !tbaa !17
  %.not1113 = icmp eq i32 %.pr, 0
  br i1 %.not1113, label %8, label %.thread14

7:                                                ; preds = %6
  call void @rb_set_errinfo(i64 noundef 4) #15
  br label %.thread14

8:                                                ; preds = %.thread, %6
  %.not12 = icmp eq ptr %0, null
  br i1 %.not12, label %.thread14, label %9

9:                                                ; preds = %8
  %10 = inttoptr i64 %5 to ptr
  %11 = load i64, ptr %10, align 8, !tbaa !7, !noalias !22
  %12 = and i64 %11, 8192
  %.not.i.i = icmp eq i64 %12, 0
  %13 = getelementptr inbounds nuw i8, ptr %10, i64 24
  br i1 %.not.i.i, label %RSTRING_PTR.exit, label %14

14:                                               ; preds = %9
  %.sroa.2.0.copyload.i = load ptr, ptr %13, align 8
  br label %RSTRING_PTR.exit

RSTRING_PTR.exit:                                 ; preds = %9, %14
  %.sroa.2.0.i = phi ptr [ %.sroa.2.0.copyload.i, %14 ], [ %13, %9 ]
  call void @llvm.memcpy.p0.p0.i64(ptr noundef nonnull align 1 %.sroa.2.0.i, ptr noundef nonnull align 1 %0, i64 noundef %1, i1 noundef false) #15
  br label %.thread14

.thread14:                                        ; preds = %.thread, %8, %RSTRING_PTR.exit, %7
  %.0 = phi i64 [ 4, %7 ], [ %5, %RSTRING_PTR.exit ], [ %5, %8 ], [ 4, %.thread ]
  call void @llvm.lifetime.end.p0(i64 4, ptr nonnull %4) #15
  ret i64 %.0
}